((lp0
(S'R'
p1
S'E'
p2
S'G'
p3
S'Y'
p4
tp5
a(S'M'
p6
g4
S'F'
p7
S'A'
p8
tp9
a(S'L'
p10
S'H'
p11
S'D'
p12
g3
tp13
a(g7
g8
g2
g4
tp14
a(S'Q'
p15
S'P'
p16
g10
S'T'
p17
tp18
a(g17
g8
g8
g4
tp19
a(S'S'
p20
g3
S'K'
p21
S'C'
p22
tp23
a(g4
g4
g3
g7
tp24
a(g17
g15
g8
g20
tp25
a(g10
S'V'
p26
g26
g2
tp27
a(g2
S'N'
p28
g26
g10
tp29
a(g28
g16
g16
g8
tp30
a(g28
g16
g2
g7
tp31
a(g3
g4
g12
g3
tp32
a(g20
g11
g11
g21
tp33
a(g26
g16
g7
g10
tp34
a(S'I'
p35
g26
g26
g26
tp36
a(g22
g11
g22
g6
tp37
a(g35
g3
g3
g26
tp38
a(g16
g4
g16
g16
tp39
a(g28
g2
g8
g2
tp40
a(g28
g2
g12
g8
tp41
a(g3
S'-'
p42
g42
g42
tp43
a(g15
g42
g21
g42
tp44
a(g22
g42
g22
g42
tp45
a(g7
g15
g4
g42
tp46
a(g22
g22
g22
g12
tp47
a(g10
g20
g20
g8
tp48
a(g8
g20
g8
g3
tp49
a(S'W'
p50
g35
g50
g50
tp51
a(g10
g4
g10
g10
tp52
a(g21
g35
g11
g11
tp53
a(g20
g4
g20
g20
tp54
a(g28
g4
g1
g11
tp55
a(g3
g3
g3
g3
tp56
a(g17
g8
g17
g17
tp57
a(g28
g10
g16
g15
tp58
a(g8
g50
g3
g8
tp59
a(g2
g2
g2
g2
tp60
a(g21
g15
g21
g7
tp61
a(g10
g2
g35
g26
tp62
a(g8
g17
g3
g8
tp63
a(g8
g8
g8
g8
tp64
a(g28
g1
g15
g17
tp65
a(g35
g3
g26
g8
tp66
a(g10
g7
g22
g22
tp67
a(g15
g15
g15
g15
tp68
a(g50
g50
g50
g4
tp69
a(g35
g7
g35
g17
tp70
a(g17
g8
g8
g8
tp71
a(g7
g26
g7
g10
tp72
a(g8
g7
g20
g20
tp73
a(g10
g10
g35
g10
tp74
a(g20
g20
g8
g8
tp75
a(g8
g8
g35
g10
tp76
a(g10
g10
g8
g10
tp77
a(g22
g7
g10
g10
tp78
a(g10
g10
g10
g10
tp79
a(g6
g8
g17
g20
tp80
a(g7
g7
g7
g7
tp81
a(g4
g4
g4
g4
tp82
a(g3
g3
g3
g8
tp83
a(g4
g50
g7
g4
tp84
a(g15
g11
g20
g20
tp85
a(g17
g8
g8
g8
tp86
a(g50
g4
g50
g50
tp87
a(g21
g21
g21
g21
tp88
a(g20
g8
g8
g8
tp89
a(g17
g20
g17
g17
tp90
a(g22
g26
g22
g22
tp91
a(g42
g42
g42
g42
tp92
a(g42
g42
g42
g42
tp93
a(g42
g42
g42
g42
tp94
a(g42
g42
g42
g42
tp95
a(g42
g42
g42
g42
tp96
a(g42
g42
g42
g42
tp97
a(g42
g42
g42
g42
tp98
a(g42
g42
g42
g42
tp99
a(g42
g42
g42
g42
tp100
a(g3
g3
g3
g3
tp101
a(g50
g50
g50
g50
tp102
a(g42
g42
g42
g42
tp103
a(g2
g2
g2
g2
tp104
a(g2
g2
g2
g2
tp105
a(g35
g26
g26
g3
tp106
a(g4
g4
g4
g4
tp107
a(g26
g26
g26
g26
tp108
a(g8
g22
g22
g22
tp109
a(g17
g20
g22
g22
tp110
a(g35
g26
g26
g26
tp111
a(g2
g2
g2
g2
tp112
a(g6
g10
g26
g26
tp113
a(g35
g35
g10
g10
tp114
a(g21
g21
g7
g7
tp115
a(g7
g26
g26
g26
tp116
a(g35
g35
g17
g17
tp117
a(g35
g10
g10
g10
tp118
a(g2
g2
g2
g2
tp119
a(g4
g35
g35
g35
tp120
a(g7
g4
g7
g20
tp121
a(g11
g7
g21
g28
tp122
a(g2
g2
g2
g2
tp123
a(g7
g7
g7
g7
tp124
a(g42
g42
g42
g42
tp125
a(g42
g42
g42
g42
tp126
a(g12
g17
g20
g28
tp127
a(g2
g20
g20
g20
tp128
a(g16
g16
g16
g16
tp129
a(g8
g8
g8
g8
tp130
a(g26
g6
g17
g17
tp131
a(g35
g10
g26
g10
tp132
a(g4
g7
g4
g4
tp133
a(g20
g10
g10
g10
tp134
a(g20
g4
g20
g20
tp135
a(g28
g3
g17
g17
tp136
a(g3
g3
g3
g3
tp137
a(g28
g28
g28
g28
tp138
a(g21
g35
g11
g4
tp139
a(g17
g17
g8
g22
tp140
a(g26
g16
g4
g4
tp141
a(g50
g50
g22
g7
tp142
a(g10
g10
g10
g10
tp143
a(g42
g42
g42
g42
tp144
a(g42
g42
g42
g42
tp145
a(g42
g42
g42
g42
tp146
a(g1
g1
g1
g1
tp147
a(g4
g4
g4
g4
tp148
a(g8
g8
g7
g3
tp149
a(g2
g2
g2
g2
tp150
a(g50
g50
g50
g50
tp151
a(g10
g10
g10
g10
tp152
a(g10
g10
g10
g10
tp153
a(g17
g17
g20
g20
tp154
a(g22
g22
g22
g22
tp155
a(g16
g16
g16
g16
tp156
a(g26
g26
g26
g26
tp157
a(g35
g35
g35
g35
tp158
a(g10
g10
g10
g10
tp159
a(g35
g35
g35
g35
tp160
a(g11
g11
g1
g11
tp161
a(g10
g10
g10
g10
tp162
a(g20
g20
g20
g20
tp163
a(g28
g28
g28
g28
tp164
a(g10
g35
g10
g10
tp165
a(g17
g17
g20
g20
tp166
a(g3
g3
g3
g3
tp167
a(g10
g10
g10
g10
tp168
a(g8
g20
g21
g21
tp169
a(g28
g2
g28
g28
tp170
a(g12
g8
g12
g12
tp171
a(g4
g4
g4
g4
tp172
a(g28
g28
g20
g20
tp173
a(g21
g21
g21
g6
tp174
a(g1
g1
g1
g1
tp175
a(g17
g17
g17
g17
tp176
a(g6
g6
g6
g6
tp177
a(g3
g8
g3
g1
tp178
a(g10
g10
g10
g10
tp179
a(g10
g10
g35
g10
tp180
a(g26
g26
g26
g26
tp181
a(g20
g20
g20
g20
tp182
a(g12
g12
g22
g22
tp183
a(g35
g10
g26
g35
tp184
a(g3
g3
g3
g3
tp185
a(g17
g17
g6
g6
tp186
a(g35
g35
g35
g10
tp187
a(g26
g22
g26
g35
tp188
a(g50
g6
g7
g17
tp189
a(g3
g3
g3
g3
tp190
a(g17
g26
g6
g6
tp191
a(g17
g17
g8
g8
tp192
a(g8
g8
g8
g3
tp193
a(g8
g8
g3
g3
tp194
a(g10
g10
g10
g10
tp195
a(g20
g8
g8
g3
tp196
a(g42
g42
g42
g42
tp197
a(g21
g17
g17
g26
tp198
a(g3
g3
g12
g3
tp199
a(g4
g50
g50
g50
tp200
a(g26
g26
g10
g26
tp201
a(g1
g21
g21
g21
tp202
a(g42
g42
g42
g42
tp203
a(g42
g42
g42
g42
tp204
a(g42
g42
g42
g42
tp205
a(g26
g50
g50
g50
tp206
a(g35
g10
g10
g17
tp207
a(g7
g7
g10
g10
tp208
a(g7
g4
g4
g4
tp209
a(g10
g22
g35
g7
tp210
a(g6
g35
g26
g26
tp211
a(g3
g3
g20
g20
tp212
a(g10
g10
g22
g22
tp213
a(g22
g26
g35
g8
tp214
a(g4
g4
g4
g4
tp215
a(g3
g3
g3
g20
tp216
a(g35
g17
g3
g8
tp217
a(g4
g15
g4
g15
tp218
a(g17
g17
g6
g17
tp219
a(g7
g7
g4
g4
tp220
a(g7
g4
g7
g10
tp221
a(g28
g28
g15
g15
tp222
a(g8
g8
g8
g8
tp223
a(g8
g3
g8
g8
tp224
a(g21
g35
g21
g21
tp225
a(g26
g35
g22
g22
tp226
a(g4
g4
g4
g4
tp227
a(g35
g26
g26
g26
tp228
a(g2
g2
g2
g2
tp229
a(g8
g20
g8
g26
tp230
a(g4
g4
g28
g4
tp231
a(g42
g42
g42
g42
tp232
a(g42
g42
g42
g42
tp233
a(g42
g42
g42
g42
tp234
a(g42
g42
g42
g42
tp235
a(g42
g42
g42
g42
tp236
a(g42
g42
g42
g42
tp237
a(g42
g42
g42
g42
tp238
a(g11
g4
g11
g8
tp239
a(g17
g35
g20
g17
tp240
a(g26
g6
g26
g26
tp241
a(g16
g16
g16
g16
tp242
a(g21
g8
g21
g21
tp243
a(g3
g3
g3
g3
tp244
a(g1
g3
g11
g4
tp245
a(g42
g42
g42
g42
tp246
a(g22
g22
g22
g22
tp247
a(g1
g21
g1
g1
tp248
a(g15
g21
g6
g17
tp249
a(g26
g10
g26
g26
tp250
a(g26
g26
g26
g26
tp251
a(g17
g10
g21
g21
tp252
a(g3
g8
g10
g10
tp253
a(g6
g6
g6
g6
tp254
a(g8
g17
g8
g8
tp255
a(g50
g8
g4
g4
tp256
a(g10
g26
g8
g8
tp257
a(g7
g4
g4
g7
tp258
a(g7
g4
g7
g7
tp259
a(g26
g20
g8
g17
tp260
a(g20
g20
g20
g8
tp261
a(g50
g50
g50
g50
tp262
a(g3
g10
g3
g3
tp263
a(g6
g6
g20
g8
tp264
a(g7
g7
g4
g4
tp265
a(g16
g16
g16
g16
tp266
a(g35
g3
g35
g35
tp267
a(g10
g10
g10
g10
tp268
a(g7
g7
g50
g50
tp269
a(g35
g35
g8
g8
tp270
a(g10
g7
g26
g35
tp271
a(g3
g3
g3
g3
tp272
a(g16
g16
g16
g16
tp273
a(g2
g2
g2
g2
tp274
a(g3
g3
g3
g3
tp275
a(g7
g6
g10
g10
tp276
a(g3
g11
g10
g21
tp277
a(g26
g17
g21
g4
tp278
a(g10
g10
g10
g35
tp279
a(g20
g20
g20
g20
tp280
a(g26
g26
g16
g3
tp281
a(g4
g8
g4
g4
tp282
a(g3
g3
g8
g20
tp283
a(g20
g20
g28
g28
tp284
a(g17
g17
g20
g17
tp285
a(g26
g35
g35
g35
tp286
a(g3
g3
g3
g8
tp287
a(g11
g11
g11
g11
tp288
a(g17
g17
g20
g17
tp289
a(g35
g35
g35
g7
tp290
a(g35
g8
g22
g22
tp291
a(g12
g12
g12
g12
tp292
a(g10
g10
g35
g35
tp293
a(g6
g10
g35
g10
tp294
a(g20
g20
g8
g8
tp295
a(g21
g21
g21
g21
tp296
a(g28
g28
g2
g2
tp297
a(g22
g35
g7
g35
tp298
a(g50
g50
g50
g50
tp299
a(g3
g3
g17
g17
tp300
a(g10
g10
g7
g7
tp301
a(g10
g10
g10
g10
tp302
a(g3
g3
g8
g3
tp303
a(g11
g11
g11
g11
tp304
a(g4
g7
g11
g11
tp305
a(g10
g10
g10
g10
tp306
a(g1
g1
g1
g1
tp307
a(g26
g35
g35
g35
tp308
a(g10
g21
g21
g21
tp309
a(g35
g35
g35
g35
tp310
a(g42
g42
g42
g42
tp311
a(g42
g42
g42
g42
tp312
a(g42
g42
g42
g42
tp313
a(g42
g42
g42
g42
tp314
a(g42
g42
g42
g42
tp315
a(g42
g42
g42
g42
tp316
a(g42
g42
g42
g42
tp317
a(g42
g42
g42
g42
tp318
a(g42
g42
g42
g42
tp319
a(g42
g42
g42
g42
tp320
a(g42
g42
g42
g42
tp321
a(g11
g11
g11
g11
tp322
a(g2
g2
g2
g2
tp323
a(g42
g42
g42
g42
tp324
a(g42
g42
g42
g42
tp325
a(g42
g42
g42
g42
tp326
a(g11
g11
g11
g11
tp327
a(g35
g35
g35
g35
tp328
a(g10
g35
g10
g10
tp329
a(g35
g6
g35
g35
tp330
a(g11
g4
g11
g11
tp331
a(g3
g3
g3
g3
tp332
a(g12
g12
g12
g12
tp333
a(g42
g42
g42
g42
tp334
a(g42
g42
g42
g42
tp335
a(g42
g42
g42
g42
tp336
a(g42
g42
g42
g42
tp337
a(g42
g42
g42
g42
tp338
a(g35
g35
g35
g35
tp339
a(g1
g1
g1
g1
tp340
a(g21
g1
g21
g21
tp341
a(g17
g16
g17
g21
tp342
a(g17
g26
g17
g26
tp343
a(g21
g20
g21
g15
tp344
a(g10
g20
g6
g26
tp345
a(g28
g15
g2
g1
tp346
a(g35
g7
g35
g26
tp347
a(g3
g10
g3
g8
tp348
a(g42
g42
g42
g42
tp349
a(g3
g3
g3
g3
tp350
a(g17
g1
g2
g2
tp351
a(g2
g21
g2
g10
tp352
a(g35
g26
g26
g6
tp353
a(g2
g12
g2
g28
tp354
a(g26
g26
g26
g26
tp355
a(g2
g10
g2
g2
tp356
a(g17
g8
g2
g2
tp357
a(g10
g7
g7
g10
tp358
a(g26
g26
g26
g6
tp359
a(g2
g17
g2
g2
tp360
a(g12
g2
g2
g2
tp361
a(g2
g2
g2
g2
tp362
a(lp363
(I0
I1
tp364
a(I0
I2
tp365
a(I0
I5
tp366
a(I1
I2
tp367
a(I1
I3
tp368
a(I1
I5
tp369
a(I1
I23
tp370
a(I2
I3
tp371
a(I2
I23
tp372
a(I3
I4
tp373
a(I3
I5
tp374
a(I3
I23
tp375
a(I3
I24
tp376
a(I3
I29
tp377
a(I3
I30
tp378
a(I3
I111
tp379
a(I4
I5
tp380
a(I4
I6
tp381
a(I4
I18
tp382
a(I4
I19
tp383
a(I4
I21
tp384
a(I4
I23
tp385
a(I4
I24
tp386
a(I4
I25
tp387
a(I4
I30
tp388
a(I5
I6
tp389
a(I5
I7
tp390
a(I5
I30
tp391
a(I6
I7
tp392
a(I6
I18
tp393
a(I6
I19
tp394
a(I7
I8
tp395
a(I7
I9
tp396
a(I7
I16
tp397
a(I7
I17
tp398
a(I7
I18
tp399
a(I7
I25
tp400
a(I7
I27
tp401
a(I7
I30
tp402
a(I8
I9
tp403
a(I8
I10
tp404
a(I8
I15
tp405
a(I8
I16
tp406
a(I8
I17
tp407
a(I9
I10
tp408
a(I9
I13
tp409
a(I9
I15
tp410
a(I9
I16
tp411
a(I10
I11
tp412
a(I10
I12
tp413
a(I10
I13
tp414
a(I10
I14
tp415
a(I10
I15
tp416
a(I10
I17
tp417
a(I11
I12
tp418
a(I11
I13
tp419
a(I11
I14
tp420
a(I11
I15
tp421
a(I12
I13
tp422
a(I12
I14
tp423
a(I13
I14
tp424
a(I13
I15
tp425
a(I14
I15
tp426
a(I14
I16
tp427
a(I15
I16
tp428
a(I15
I17
tp429
a(I16
I17
tp430
a(I16
I18
tp431
a(I16
I25
tp432
a(I16
I27
tp433
a(I17
I18
tp434
a(I18
I19
tp435
a(I18
I20
tp436
a(I18
I25
tp437
a(I19
I20
tp438
a(I19
I21
tp439
a(I20
I21
tp440
a(I20
I22
tp441
a(I21
I22
tp442
a(I21
I23
tp443
a(I22
I23
tp444
a(I22
I24
tp445
a(I23
I24
tp446
a(I23
I25
tp447
a(I24
I25
tp448
a(I24
I26
tp449
a(I24
I29
tp450
a(I25
I26
tp451
a(I25
I27
tp452
a(I25
I29
tp453
a(I25
I30
tp454
a(I26
I27
tp455
a(I26
I28
tp456
a(I26
I29
tp457
a(I26
I30
tp458
a(I26
I115
tp459
a(I27
I28
tp460
a(I27
I29
tp461
a(I27
I30
tp462
a(I27
I31
tp463
a(I28
I29
tp464
a(I28
I30
tp465
a(I28
I31
tp466
a(I28
I115
tp467
a(I28
I117
tp468
a(I29
I30
tp469
a(I29
I31
tp470
a(I29
I111
tp471
a(I29
I112
tp472
a(I29
I113
tp473
a(I29
I115
tp474
a(I29
I116
tp475
a(I29
I117
tp476
a(I30
I31
tp477
a(I30
I32
tp478
a(I31
I32
tp479
a(I31
I33
tp480
a(I31
I117
tp481
a(I32
I33
tp482
a(I32
I34
tp483
a(I32
I117
tp484
a(I33
I34
tp485
a(I33
I102
tp486
a(I33
I117
tp487
a(I33
I258
tp488
a(I33
I259
tp489
a(I33
I260
tp490
a(I34
I35
tp491
a(I34
I36
tp492
a(I34
I38
tp493
a(I34
I258
tp494
a(I34
I260
tp495
a(I35
I36
tp496
a(I35
I37
tp497
a(I35
I38
tp498
a(I35
I39
tp499
a(I35
I260
tp500
a(I36
I37
tp501
a(I36
I38
tp502
a(I36
I39
tp503
a(I36
I40
tp504
a(I37
I38
tp505
a(I37
I39
tp506
a(I37
I40
tp507
a(I37
I41
tp508
a(I38
I39
tp509
a(I38
I40
tp510
a(I38
I41
tp511
a(I38
I42
tp512
a(I38
I258
tp513
a(I38
I260
tp514
a(I38
I261
tp515
a(I38
I264
tp516
a(I39
I40
tp517
a(I39
I41
tp518
a(I39
I42
tp519
a(I39
I43
tp520
a(I39
I101
tp521
a(I39
I102
tp522
a(I39
I260
tp523
a(I40
I41
tp524
a(I40
I42
tp525
a(I40
I43
tp526
a(I40
I44
tp527
a(I41
I42
tp528
a(I41
I43
tp529
a(I41
I44
tp530
a(I41
I45
tp531
a(I41
I264
tp532
a(I42
I43
tp533
a(I42
I44
tp534
a(I42
I45
tp535
a(I42
I46
tp536
a(I42
I260
tp537
a(I42
I263
tp538
a(I42
I264
tp539
a(I43
I44
tp540
a(I43
I45
tp541
a(I43
I46
tp542
a(I43
I47
tp543
a(I44
I45
tp544
a(I44
I46
tp545
a(I44
I47
tp546
a(I44
I48
tp547
a(I45
I46
tp548
a(I45
I47
tp549
a(I45
I48
tp550
a(I45
I49
tp551
a(I45
I264
tp552
a(I45
I267
tp553
a(I45
I268
tp554
a(I45
I271
tp555
a(I46
I47
tp556
a(I46
I48
tp557
a(I46
I49
tp558
a(I46
I50
tp559
a(I46
I94
tp560
a(I46
I97
tp561
a(I46
I101
tp562
a(I46
I263
tp563
a(I46
I267
tp564
a(I47
I48
tp565
a(I47
I49
tp566
a(I47
I50
tp567
a(I47
I51
tp568
a(I47
I94
tp569
a(I47
I98
tp570
a(I48
I49
tp571
a(I48
I50
tp572
a(I48
I51
tp573
a(I48
I52
tp574
a(I48
I271
tp575
a(I49
I50
tp576
a(I49
I51
tp577
a(I49
I52
tp578
a(I49
I53
tp579
a(I49
I90
tp580
a(I49
I267
tp581
a(I49
I271
tp582
a(I49
I275
tp583
a(I50
I51
tp584
a(I50
I52
tp585
a(I50
I53
tp586
a(I50
I54
tp587
a(I50
I91
tp588
a(I50
I94
tp589
a(I50
I95
tp590
a(I51
I52
tp591
a(I51
I53
tp592
a(I51
I54
tp593
a(I51
I55
tp594
a(I52
I53
tp595
a(I52
I54
tp596
a(I52
I55
tp597
a(I52
I56
tp598
a(I52
I57
tp599
a(I52
I271
tp600
a(I52
I275
tp601
a(I53
I54
tp602
a(I53
I55
tp603
a(I53
I56
tp604
a(I53
I57
tp605
a(I53
I87
tp606
a(I53
I90
tp607
a(I53
I91
tp608
a(I53
I275
tp609
a(I54
I55
tp610
a(I54
I56
tp611
a(I54
I57
tp612
a(I54
I58
tp613
a(I54
I91
tp614
a(I55
I56
tp615
a(I55
I57
tp616
a(I55
I58
tp617
a(I55
I59
tp618
a(I56
I57
tp619
a(I56
I58
tp620
a(I56
I59
tp621
a(I56
I60
tp622
a(I56
I275
tp623
a(I56
I279
tp624
a(I57
I58
tp625
a(I57
I59
tp626
a(I57
I60
tp627
a(I57
I84
tp628
a(I57
I87
tp629
a(I57
I88
tp630
a(I57
I91
tp631
a(I58
I59
tp632
a(I58
I60
tp633
a(I59
I60
tp634
a(I59
I279
tp635
a(I59
I282
tp636
a(I60
I83
tp637
a(I60
I84
tp638
a(I60
I275
tp639
a(I60
I278
tp640
a(I60
I279
tp641
a(I60
I282
tp642
a(I69
I79
tp643
a(I69
I80
tp644
a(I69
I82
tp645
a(I69
I285
tp646
a(I79
I80
tp647
a(I79
I82
tp648
a(I79
I83
tp649
a(I79
I84
tp650
a(I79
I285
tp651
a(I80
I82
tp652
a(I80
I83
tp653
a(I80
I84
tp654
a(I80
I85
tp655
a(I80
I135
tp656
a(I80
I138
tp657
a(I82
I83
tp658
a(I82
I84
tp659
a(I82
I85
tp660
a(I82
I86
tp661
a(I82
I135
tp662
a(I82
I138
tp663
a(I82
I139
tp664
a(I82
I150
tp665
a(I82
I285
tp666
a(I83
I84
tp667
a(I83
I85
tp668
a(I83
I86
tp669
a(I83
I87
tp670
a(I83
I136
tp671
a(I83
I139
tp672
a(I83
I274
tp673
a(I83
I277
tp674
a(I83
I278
tp675
a(I84
I85
tp676
a(I84
I86
tp677
a(I84
I87
tp678
a(I84
I88
tp679
a(I85
I86
tp680
a(I85
I87
tp681
a(I85
I88
tp682
a(I85
I89
tp683
a(I85
I131
tp684
a(I85
I135
tp685
a(I86
I87
tp686
a(I86
I88
tp687
a(I86
I89
tp688
a(I86
I90
tp689
a(I86
I132
tp690
a(I86
I135
tp691
a(I86
I136
tp692
a(I86
I274
tp693
a(I87
I88
tp694
a(I87
I89
tp695
a(I87
I90
tp696
a(I87
I91
tp697
a(I88
I89
tp698
a(I88
I90
tp699
a(I88
I91
tp700
a(I88
I92
tp701
a(I89
I90
tp702
a(I89
I91
tp703
a(I89
I92
tp704
a(I89
I93
tp705
a(I89
I128
tp706
a(I89
I131
tp707
a(I89
I132
tp708
a(I90
I91
tp709
a(I90
I92
tp710
a(I90
I93
tp711
a(I90
I94
tp712
a(I90
I128
tp713
a(I90
I270
tp714
a(I90
I274
tp715
a(I90
I275
tp716
a(I91
I92
tp717
a(I91
I93
tp718
a(I91
I94
tp719
a(I91
I95
tp720
a(I92
I93
tp721
a(I92
I94
tp722
a(I92
I95
tp723
a(I92
I96
tp724
a(I93
I94
tp725
a(I93
I95
tp726
a(I93
I96
tp727
a(I93
I97
tp728
a(I93
I121
tp729
a(I93
I125
tp730
a(I93
I128
tp731
a(I93
I270
tp732
a(I94
I95
tp733
a(I94
I96
tp734
a(I94
I97
tp735
a(I94
I98
tp736
a(I95
I96
tp737
a(I95
I97
tp738
a(I95
I98
tp739
a(I95
I99
tp740
a(I96
I97
tp741
a(I96
I98
tp742
a(I96
I99
tp743
a(I96
I100
tp744
a(I96
I101
tp745
a(I96
I108
tp746
a(I96
I121
tp747
a(I97
I98
tp748
a(I97
I99
tp749
a(I97
I100
tp750
a(I97
I101
tp751
a(I97
I121
tp752
a(I98
I99
tp753
a(I98
I100
tp754
a(I99
I100
tp755
a(I99
I101
tp756
a(I99
I105
tp757
a(I100
I101
tp758
a(I100
I102
tp759
a(I100
I105
tp760
a(I100
I108
tp761
a(I101
I102
tp762
a(I101
I105
tp763
a(I101
I108
tp764
a(I101
I109
tp765
a(I101
I263
tp766
a(I102
I105
tp767
a(I102
I106
tp768
a(I102
I109
tp769
a(I102
I111
tp770
a(I102
I259
tp771
a(I102
I260
tp772
a(I105
I106
tp773
a(I105
I107
tp774
a(I105
I108
tp775
a(I105
I109
tp776
a(I106
I107
tp777
a(I106
I108
tp778
a(I106
I109
tp779
a(I106
I110
tp780
a(I106
I111
tp781
a(I107
I108
tp782
a(I107
I109
tp783
a(I107
I110
tp784
a(I107
I120
tp785
a(I107
I121
tp786
a(I108
I109
tp787
a(I108
I110
tp788
a(I108
I118
tp789
a(I108
I119
tp790
a(I108
I120
tp791
a(I108
I121
tp792
a(I109
I110
tp793
a(I109
I111
tp794
a(I109
I117
tp795
a(I109
I118
tp796
a(I109
I119
tp797
a(I109
I120
tp798
a(I110
I111
tp799
a(I110
I112
tp800
a(I110
I116
tp801
a(I110
I117
tp802
a(I110
I118
tp803
a(I110
I120
tp804
a(I110
I173
tp805
a(I111
I112
tp806
a(I111
I113
tp807
a(I111
I116
tp808
a(I111
I117
tp809
a(I112
I113
tp810
a(I112
I114
tp811
a(I112
I115
tp812
a(I112
I116
tp813
a(I112
I173
tp814
a(I113
I114
tp815
a(I113
I115
tp816
a(I114
I115
tp817
a(I114
I116
tp818
a(I114
I173
tp819
a(I114
I174
tp820
a(I114
I176
tp821
a(I115
I116
tp822
a(I115
I117
tp823
a(I116
I117
tp824
a(I116
I118
tp825
a(I116
I172
tp826
a(I116
I173
tp827
a(I116
I174
tp828
a(I116
I176
tp829
a(I116
I180
tp830
a(I117
I118
tp831
a(I117
I119
tp832
a(I118
I119
tp833
a(I118
I120
tp834
a(I118
I126
tp835
a(I118
I169
tp836
a(I118
I172
tp837
a(I118
I173
tp838
a(I119
I120
tp839
a(I119
I121
tp840
a(I119
I125
tp841
a(I119
I126
tp842
a(I120
I121
tp843
a(I120
I125
tp844
a(I120
I126
tp845
a(I120
I127
tp846
a(I120
I128
tp847
a(I120
I130
tp848
a(I120
I169
tp849
a(I121
I125
tp850
a(I121
I126
tp851
a(I121
I127
tp852
a(I121
I128
tp853
a(I125
I126
tp854
a(I125
I127
tp855
a(I125
I128
tp856
a(I125
I129
tp857
a(I125
I252
tp858
a(I125
I262
tp859
a(I125
I263
tp860
a(I125
I266
tp861
a(I126
I127
tp862
a(I126
I128
tp863
a(I126
I129
tp864
a(I126
I130
tp865
a(I126
I165
tp866
a(I126
I169
tp867
a(I126
I172
tp868
a(I126
I247
tp869
a(I126
I252
tp870
a(I127
I128
tp871
a(I127
I129
tp872
a(I127
I130
tp873
a(I127
I131
tp874
a(I128
I129
tp875
a(I128
I130
tp876
a(I128
I131
tp877
a(I128
I132
tp878
a(I128
I133
tp879
a(I128
I270
tp880
a(I128
I274
tp881
a(I129
I130
tp882
a(I129
I131
tp883
a(I129
I132
tp884
a(I129
I133
tp885
a(I129
I134
tp886
a(I129
I165
tp887
a(I129
I243
tp888
a(I129
I266
tp889
a(I129
I270
tp890
a(I129
I274
tp891
a(I130
I131
tp892
a(I130
I132
tp893
a(I130
I134
tp894
a(I130
I162
tp895
a(I130
I165
tp896
a(I131
I132
tp897
a(I131
I133
tp898
a(I131
I134
tp899
a(I131
I135
tp900
a(I132
I133
tp901
a(I132
I134
tp902
a(I132
I135
tp903
a(I132
I136
tp904
a(I132
I274
tp905
a(I133
I134
tp906
a(I133
I135
tp907
a(I133
I136
tp908
a(I133
I137
tp909
a(I133
I161
tp910
a(I133
I165
tp911
a(I133
I240
tp912
a(I134
I135
tp913
a(I134
I136
tp914
a(I134
I137
tp915
a(I134
I138
tp916
a(I134
I158
tp917
a(I134
I161
tp918
a(I134
I162
tp919
a(I135
I136
tp920
a(I135
I137
tp921
a(I135
I138
tp922
a(I135
I139
tp923
a(I136
I137
tp924
a(I136
I138
tp925
a(I136
I139
tp926
a(I136
I140
tp927
a(I136
I236
tp928
a(I136
I240
tp929
a(I136
I273
tp930
a(I136
I274
tp931
a(I136
I277
tp932
a(I137
I138
tp933
a(I137
I139
tp934
a(I137
I140
tp935
a(I137
I141
tp936
a(I137
I157
tp937
a(I137
I158
tp938
a(I137
I161
tp939
a(I137
I197
tp940
a(I137
I236
tp941
a(I137
I240
tp942
a(I138
I139
tp943
a(I138
I140
tp944
a(I138
I141
tp945
a(I138
I142
tp946
a(I138
I150
tp947
a(I138
I158
tp948
a(I139
I140
tp949
a(I139
I141
tp950
a(I139
I142
tp951
a(I139
I143
tp952
a(I139
I277
tp953
a(I139
I278
tp954
a(I139
I281
tp955
a(I139
I282
tp956
a(I139
I285
tp957
a(I140
I141
tp958
a(I140
I142
tp959
a(I140
I143
tp960
a(I140
I157
tp961
a(I140
I201
tp962
a(I140
I204
tp963
a(I140
I205
tp964
a(I140
I236
tp965
a(I140
I277
tp966
a(I141
I142
tp967
a(I141
I143
tp968
a(I141
I149
tp969
a(I141
I150
tp970
a(I141
I154
tp971
a(I141
I157
tp972
a(I141
I204
tp973
a(I142
I143
tp974
a(I142
I144
tp975
a(I142
I145
tp976
a(I142
I146
tp977
a(I142
I147
tp978
a(I142
I149
tp979
a(I142
I150
tp980
a(I142
I285
tp981
a(I143
I144
tp982
a(I143
I145
tp983
a(I143
I205
tp984
a(I143
I208
tp985
a(I143
I232
tp986
a(I143
I277
tp987
a(I143
I281
tp988
a(I143
I284
tp989
a(I143
I285
tp990
a(I144
I145
tp991
a(I144
I146
tp992
a(I144
I147
tp993
a(I144
I218
tp994
a(I144
I219
tp995
a(I144
I285
tp996
a(I144
I288
tp997
a(I145
I146
tp998
a(I145
I147
tp999
a(I145
I285
tp1000
a(I146
I147
tp1001
a(I146
I148
tp1002
a(I146
I288
tp1003
a(I146
I306
tp1004
a(I146
I311
tp1005
a(I146
I318
tp1006
a(I146
I336
tp1007
a(I147
I148
tp1008
a(I147
I149
tp1009
a(I148
I149
tp1010
a(I148
I150
tp1011
a(I149
I150
tp1012
a(I149
I151
tp1013
a(I149
I154
tp1014
a(I150
I151
tp1015
a(I150
I154
tp1016
a(I151
I152
tp1017
a(I151
I153
tp1018
a(I151
I154
tp1019
a(I151
I155
tp1020
a(I152
I153
tp1021
a(I152
I154
tp1022
a(I152
I155
tp1023
a(I152
I156
tp1024
a(I153
I154
tp1025
a(I153
I155
tp1026
a(I153
I156
tp1027
a(I153
I157
tp1028
a(I153
I200
tp1029
a(I153
I203
tp1030
a(I153
I204
tp1031
a(I153
I207
tp1032
a(I154
I155
tp1033
a(I154
I156
tp1034
a(I154
I157
tp1035
a(I154
I158
tp1036
a(I155
I156
tp1037
a(I155
I157
tp1038
a(I155
I158
tp1039
a(I155
I159
tp1040
a(I156
I157
tp1041
a(I156
I158
tp1042
a(I156
I159
tp1043
a(I156
I160
tp1044
a(I156
I196
tp1045
a(I156
I200
tp1046
a(I157
I158
tp1047
a(I157
I159
tp1048
a(I157
I160
tp1049
a(I157
I161
tp1050
a(I157
I197
tp1051
a(I157
I200
tp1052
a(I157
I201
tp1053
a(I157
I204
tp1054
a(I158
I159
tp1055
a(I158
I160
tp1056
a(I158
I161
tp1057
a(I158
I162
tp1058
a(I159
I160
tp1059
a(I159
I161
tp1060
a(I159
I162
tp1061
a(I159
I163
tp1062
a(I159
I193
tp1063
a(I160
I161
tp1064
a(I160
I162
tp1065
a(I160
I163
tp1066
a(I160
I164
tp1067
a(I160
I193
tp1068
a(I160
I196
tp1069
a(I160
I197
tp1070
a(I161
I162
tp1071
a(I161
I163
tp1072
a(I161
I164
tp1073
a(I161
I165
tp1074
a(I161
I197
tp1075
a(I161
I240
tp1076
a(I162
I163
tp1077
a(I162
I164
tp1078
a(I162
I165
tp1079
a(I162
I166
tp1080
a(I163
I164
tp1081
a(I163
I165
tp1082
a(I163
I166
tp1083
a(I163
I167
tp1084
a(I163
I193
tp1085
a(I164
I165
tp1086
a(I164
I166
tp1087
a(I164
I167
tp1088
a(I164
I168
tp1089
a(I164
I190
tp1090
a(I164
I193
tp1091
a(I164
I194
tp1092
a(I164
I197
tp1093
a(I165
I166
tp1094
a(I165
I167
tp1095
a(I165
I168
tp1096
a(I165
I169
tp1097
a(I166
I167
tp1098
a(I166
I168
tp1099
a(I166
I169
tp1100
a(I166
I170
tp1101
a(I167
I168
tp1102
a(I167
I169
tp1103
a(I167
I170
tp1104
a(I167
I171
tp1105
a(I167
I186
tp1106
a(I167
I187
tp1107
a(I167
I189
tp1108
a(I167
I190
tp1109
a(I167
I193
tp1110
a(I168
I169
tp1111
a(I168
I170
tp1112
a(I168
I171
tp1113
a(I168
I172
tp1114
a(I168
I247
tp1115
a(I169
I170
tp1116
a(I169
I171
tp1117
a(I169
I172
tp1118
a(I169
I173
tp1119
a(I170
I171
tp1120
a(I170
I172
tp1121
a(I170
I173
tp1122
a(I170
I174
tp1123
a(I170
I186
tp1124
a(I171
I172
tp1125
a(I171
I173
tp1126
a(I171
I174
tp1127
a(I171
I180
tp1128
a(I171
I186
tp1129
a(I171
I187
tp1130
a(I171
I247
tp1131
a(I172
I173
tp1132
a(I172
I174
tp1133
a(I172
I180
tp1134
a(I172
I247
tp1135
a(I172
I252
tp1136
a(I173
I174
tp1137
a(I174
I176
tp1138
a(I174
I179
tp1139
a(I174
I180
tp1140
a(I174
I186
tp1141
a(I176
I177
tp1142
a(I176
I178
tp1143
a(I176
I179
tp1144
a(I176
I180
tp1145
a(I177
I178
tp1146
a(I177
I179
tp1147
a(I177
I180
tp1148
a(I177
I184
tp1149
a(I178
I179
tp1150
a(I178
I180
tp1151
a(I178
I184
tp1152
a(I178
I185
tp1153
a(I179
I180
tp1154
a(I179
I184
tp1155
a(I179
I185
tp1156
a(I179
I186
tp1157
a(I180
I184
tp1158
a(I180
I185
tp1159
a(I180
I186
tp1160
a(I180
I187
tp1161
a(I180
I251
tp1162
a(I180
I252
tp1163
a(I180
I253
tp1164
a(I184
I185
tp1165
a(I184
I186
tp1166
a(I184
I187
tp1167
a(I184
I188
tp1168
a(I185
I186
tp1169
a(I185
I187
tp1170
a(I185
I188
tp1171
a(I185
I189
tp1172
a(I186
I187
tp1173
a(I186
I188
tp1174
a(I186
I189
tp1175
a(I186
I190
tp1176
a(I187
I188
tp1177
a(I187
I189
tp1178
a(I187
I190
tp1179
a(I187
I191
tp1180
a(I187
I244
tp1181
a(I187
I247
tp1182
a(I187
I248
tp1183
a(I188
I189
tp1184
a(I188
I190
tp1185
a(I188
I191
tp1186
a(I188
I192
tp1187
a(I189
I190
tp1188
a(I189
I191
tp1189
a(I189
I192
tp1190
a(I189
I193
tp1191
a(I190
I191
tp1192
a(I190
I192
tp1193
a(I190
I193
tp1194
a(I190
I194
tp1195
a(I191
I192
tp1196
a(I191
I193
tp1197
a(I191
I194
tp1198
a(I191
I195
tp1199
a(I192
I193
tp1200
a(I192
I194
tp1201
a(I192
I195
tp1202
a(I192
I196
tp1203
a(I193
I194
tp1204
a(I193
I195
tp1205
a(I193
I196
tp1206
a(I193
I197
tp1207
a(I194
I195
tp1208
a(I194
I196
tp1209
a(I194
I197
tp1210
a(I194
I198
tp1211
a(I195
I196
tp1212
a(I195
I197
tp1213
a(I195
I198
tp1214
a(I195
I199
tp1215
a(I196
I197
tp1216
a(I196
I198
tp1217
a(I196
I199
tp1218
a(I196
I200
tp1219
a(I197
I198
tp1220
a(I197
I199
tp1221
a(I197
I200
tp1222
a(I197
I201
tp1223
a(I198
I199
tp1224
a(I198
I200
tp1225
a(I198
I201
tp1226
a(I198
I202
tp1227
a(I198
I237
tp1228
a(I198
I240
tp1229
a(I198
I241
tp1230
a(I199
I200
tp1231
a(I199
I201
tp1232
a(I199
I202
tp1233
a(I199
I203
tp1234
a(I200
I201
tp1235
a(I200
I202
tp1236
a(I200
I203
tp1237
a(I200
I204
tp1238
a(I201
I202
tp1239
a(I201
I203
tp1240
a(I201
I204
tp1241
a(I201
I205
tp1242
a(I201
I236
tp1243
a(I201
I237
tp1244
a(I202
I203
tp1245
a(I202
I204
tp1246
a(I202
I205
tp1247
a(I202
I206
tp1248
a(I202
I237
tp1249
a(I203
I204
tp1250
a(I203
I205
tp1251
a(I203
I206
tp1252
a(I203
I207
tp1253
a(I204
I205
tp1254
a(I204
I206
tp1255
a(I204
I207
tp1256
a(I204
I208
tp1257
a(I205
I206
tp1258
a(I205
I207
tp1259
a(I205
I208
tp1260
a(I205
I209
tp1261
a(I205
I229
tp1262
a(I205
I232
tp1263
a(I205
I233
tp1264
a(I205
I236
tp1265
a(I205
I237
tp1266
a(I205
I277
tp1267
a(I206
I207
tp1268
a(I206
I208
tp1269
a(I206
I209
tp1270
a(I206
I217
tp1271
a(I207
I208
tp1272
a(I207
I209
tp1273
a(I207
I217
tp1274
a(I207
I218
tp1275
a(I207
I323
tp1276
a(I207
I333
tp1277
a(I208
I209
tp1278
a(I208
I217
tp1279
a(I208
I218
tp1280
a(I208
I219
tp1281
a(I208
I229
tp1282
a(I209
I217
tp1283
a(I209
I218
tp1284
a(I209
I219
tp1285
a(I209
I226
tp1286
a(I209
I229
tp1287
a(I209
I230
tp1288
a(I217
I218
tp1289
a(I217
I219
tp1290
a(I217
I226
tp1291
a(I217
I321
tp1292
a(I217
I323
tp1293
a(I217
I333
tp1294
a(I217
I335
tp1295
a(I218
I219
tp1296
a(I218
I220
tp1297
a(I218
I318
tp1298
a(I218
I333
tp1299
a(I218
I334
tp1300
a(I218
I335
tp1301
a(I218
I336
tp1302
a(I219
I220
tp1303
a(I219
I221
tp1304
a(I219
I225
tp1305
a(I219
I226
tp1306
a(I219
I229
tp1307
a(I219
I284
tp1308
a(I219
I288
tp1309
a(I219
I335
tp1310
a(I219
I336
tp1311
a(I220
I221
tp1312
a(I220
I222
tp1313
a(I220
I225
tp1314
a(I220
I226
tp1315
a(I220
I288
tp1316
a(I220
I305
tp1317
a(I220
I336
tp1318
a(I221
I222
tp1319
a(I221
I223
tp1320
a(I221
I226
tp1321
a(I222
I223
tp1322
a(I222
I225
tp1323
a(I222
I226
tp1324
a(I222
I227
tp1325
a(I223
I225
tp1326
a(I223
I226
tp1327
a(I223
I227
tp1328
a(I223
I228
tp1329
a(I223
I283
tp1330
a(I223
I287
tp1331
a(I225
I226
tp1332
a(I225
I227
tp1333
a(I225
I228
tp1334
a(I225
I229
tp1335
a(I225
I284
tp1336
a(I225
I287
tp1337
a(I225
I288
tp1338
a(I226
I227
tp1339
a(I226
I228
tp1340
a(I226
I229
tp1341
a(I226
I230
tp1342
a(I226
I335
tp1343
a(I227
I228
tp1344
a(I227
I229
tp1345
a(I227
I230
tp1346
a(I227
I231
tp1347
a(I228
I229
tp1348
a(I228
I230
tp1349
a(I228
I231
tp1350
a(I228
I232
tp1351
a(I228
I280
tp1352
a(I228
I283
tp1353
a(I228
I284
tp1354
a(I228
I287
tp1355
a(I229
I230
tp1356
a(I229
I231
tp1357
a(I229
I232
tp1358
a(I229
I233
tp1359
a(I229
I284
tp1360
a(I230
I231
tp1361
a(I230
I232
tp1362
a(I230
I233
tp1363
a(I230
I234
tp1364
a(I231
I232
tp1365
a(I231
I233
tp1366
a(I231
I234
tp1367
a(I231
I235
tp1368
a(I231
I280
tp1369
a(I232
I233
tp1370
a(I232
I234
tp1371
a(I232
I235
tp1372
a(I232
I236
tp1373
a(I232
I277
tp1374
a(I232
I280
tp1375
a(I232
I281
tp1376
a(I232
I284
tp1377
a(I233
I234
tp1378
a(I233
I235
tp1379
a(I233
I236
tp1380
a(I233
I237
tp1381
a(I234
I235
tp1382
a(I234
I236
tp1383
a(I234
I237
tp1384
a(I234
I238
tp1385
a(I234
I239
tp1386
a(I235
I236
tp1387
a(I235
I237
tp1388
a(I235
I238
tp1389
a(I235
I239
tp1390
a(I235
I240
tp1391
a(I235
I272
tp1392
a(I235
I276
tp1393
a(I235
I277
tp1394
a(I235
I280
tp1395
a(I236
I237
tp1396
a(I236
I238
tp1397
a(I236
I239
tp1398
a(I236
I240
tp1399
a(I236
I241
tp1400
a(I236
I277
tp1401
a(I237
I238
tp1402
a(I237
I239
tp1403
a(I237
I240
tp1404
a(I237
I241
tp1405
a(I238
I239
tp1406
a(I238
I240
tp1407
a(I238
I241
tp1408
a(I238
I242
tp1409
a(I239
I240
tp1410
a(I239
I241
tp1411
a(I239
I242
tp1412
a(I239
I243
tp1413
a(I239
I269
tp1414
a(I239
I272
tp1415
a(I239
I273
tp1416
a(I240
I241
tp1417
a(I240
I242
tp1418
a(I240
I243
tp1419
a(I240
I244
tp1420
a(I240
I273
tp1421
a(I241
I242
tp1422
a(I241
I243
tp1423
a(I241
I244
tp1424
a(I241
I245
tp1425
a(I242
I243
tp1426
a(I242
I244
tp1427
a(I242
I245
tp1428
a(I242
I246
tp1429
a(I242
I269
tp1430
a(I243
I244
tp1431
a(I243
I245
tp1432
a(I243
I246
tp1433
a(I243
I247
tp1434
a(I243
I266
tp1435
a(I243
I269
tp1436
a(I243
I270
tp1437
a(I243
I273
tp1438
a(I244
I245
tp1439
a(I244
I246
tp1440
a(I244
I247
tp1441
a(I244
I248
tp1442
a(I245
I246
tp1443
a(I245
I247
tp1444
a(I245
I248
tp1445
a(I245
I249
tp1446
a(I246
I247
tp1447
a(I246
I248
tp1448
a(I246
I249
tp1449
a(I246
I250
tp1450
a(I246
I252
tp1451
a(I246
I257
tp1452
a(I246
I265
tp1453
a(I246
I266
tp1454
a(I246
I269
tp1455
a(I247
I248
tp1456
a(I247
I249
tp1457
a(I247
I250
tp1458
a(I247
I252
tp1459
a(I247
I253
tp1460
a(I248
I249
tp1461
a(I248
I250
tp1462
a(I248
I253
tp1463
a(I248
I254
tp1464
a(I249
I250
tp1465
a(I249
I251
tp1466
a(I249
I254
tp1467
a(I249
I255
tp1468
a(I249
I256
tp1469
a(I249
I257
tp1470
a(I250
I251
tp1471
a(I250
I252
tp1472
a(I250
I253
tp1473
a(I250
I254
tp1474
a(I250
I255
tp1475
a(I250
I257
tp1476
a(I251
I252
tp1477
a(I251
I253
tp1478
a(I251
I255
tp1479
a(I251
I257
tp1480
a(I251
I258
tp1481
a(I251
I259
tp1482
a(I251
I262
tp1483
a(I252
I253
tp1484
a(I252
I262
tp1485
a(I253
I254
tp1486
a(I253
I255
tp1487
a(I254
I255
tp1488
a(I254
I256
tp1489
a(I255
I256
tp1490
a(I255
I257
tp1491
a(I256
I257
tp1492
a(I256
I258
tp1493
a(I257
I258
tp1494
a(I257
I259
tp1495
a(I257
I261
tp1496
a(I257
I262
tp1497
a(I258
I259
tp1498
a(I258
I260
tp1499
a(I258
I261
tp1500
a(I258
I262
tp1501
a(I259
I260
tp1502
a(I259
I261
tp1503
a(I259
I262
tp1504
a(I259
I263
tp1505
a(I260
I261
tp1506
a(I260
I262
tp1507
a(I260
I263
tp1508
a(I260
I264
tp1509
a(I261
I262
tp1510
a(I261
I263
tp1511
a(I261
I264
tp1512
a(I261
I265
tp1513
a(I262
I263
tp1514
a(I262
I264
tp1515
a(I262
I265
tp1516
a(I262
I266
tp1517
a(I263
I264
tp1518
a(I263
I265
tp1519
a(I263
I266
tp1520
a(I263
I267
tp1521
a(I264
I265
tp1522
a(I264
I266
tp1523
a(I264
I267
tp1524
a(I264
I268
tp1525
a(I265
I266
tp1526
a(I265
I267
tp1527
a(I265
I268
tp1528
a(I265
I269
tp1529
a(I266
I267
tp1530
a(I266
I268
tp1531
a(I266
I269
tp1532
a(I266
I270
tp1533
a(I267
I268
tp1534
a(I267
I269
tp1535
a(I267
I270
tp1536
a(I267
I271
tp1537
a(I268
I269
tp1538
a(I268
I270
tp1539
a(I268
I271
tp1540
a(I268
I272
tp1541
a(I269
I270
tp1542
a(I269
I271
tp1543
a(I269
I272
tp1544
a(I269
I273
tp1545
a(I269
I274
tp1546
a(I270
I271
tp1547
a(I270
I272
tp1548
a(I270
I273
tp1549
a(I270
I274
tp1550
a(I270
I275
tp1551
a(I271
I272
tp1552
a(I271
I273
tp1553
a(I271
I274
tp1554
a(I271
I275
tp1555
a(I271
I276
tp1556
a(I272
I273
tp1557
a(I272
I274
tp1558
a(I272
I276
tp1559
a(I272
I277
tp1560
a(I273
I274
tp1561
a(I273
I275
tp1562
a(I273
I277
tp1563
a(I274
I275
tp1564
a(I274
I276
tp1565
a(I274
I277
tp1566
a(I274
I278
tp1567
a(I275
I276
tp1568
a(I275
I277
tp1569
a(I275
I278
tp1570
a(I275
I279
tp1571
a(I276
I277
tp1572
a(I276
I278
tp1573
a(I276
I279
tp1574
a(I276
I280
tp1575
a(I277
I278
tp1576
a(I277
I279
tp1577
a(I277
I280
tp1578
a(I277
I281
tp1579
a(I278
I279
tp1580
a(I278
I280
tp1581
a(I278
I281
tp1582
a(I278
I282
tp1583
a(I279
I280
tp1584
a(I279
I281
tp1585
a(I279
I282
tp1586
a(I279
I283
tp1587
a(I280
I281
tp1588
a(I280
I282
tp1589
a(I280
I283
tp1590
a(I280
I284
tp1591
a(I281
I282
tp1592
a(I281
I283
tp1593
a(I281
I284
tp1594
a(I281
I285
tp1595
a(I282
I283
tp1596
a(I282
I284
tp1597
a(I282
I285
tp1598
a(I282
I286
tp1599
a(I283
I284
tp1600
a(I283
I285
tp1601
a(I283
I286
tp1602
a(I283
I287
tp1603
a(I284
I285
tp1604
a(I284
I286
tp1605
a(I284
I287
tp1606
a(I284
I288
tp1607
a(I285
I286
tp1608
a(I285
I287
tp1609
a(I285
I288
tp1610
a(I285
I300
tp1611
a(I286
I287
tp1612
a(I286
I288
tp1613
a(I286
I300
tp1614
a(I286
I301
tp1615
a(I287
I288
tp1616
a(I287
I300
tp1617
a(I287
I301
tp1618
a(I287
I305
tp1619
a(I288
I300
tp1620
a(I288
I301
tp1621
a(I288
I305
tp1622
a(I288
I306
tp1623
a(I288
I336
tp1624
a(I300
I301
tp1625
a(I300
I305
tp1626
a(I300
I306
tp1627
a(I300
I307
tp1628
a(I301
I305
tp1629
a(I301
I306
tp1630
a(I301
I307
tp1631
a(I301
I308
tp1632
a(I305
I306
tp1633
a(I305
I307
tp1634
a(I305
I308
tp1635
a(I305
I309
tp1636
a(I305
I310
tp1637
a(I305
I336
tp1638
a(I305
I337
tp1639
a(I305
I338
tp1640
a(I306
I307
tp1641
a(I306
I308
tp1642
a(I306
I309
tp1643
a(I306
I310
tp1644
a(I306
I311
tp1645
a(I306
I336
tp1646
a(I307
I308
tp1647
a(I307
I309
tp1648
a(I307
I310
tp1649
a(I308
I309
tp1650
a(I308
I310
tp1651
a(I309
I310
tp1652
a(I309
I311
tp1653
a(I309
I317
tp1654
a(I309
I337
tp1655
a(I309
I338
tp1656
a(I310
I311
tp1657
a(I310
I317
tp1658
a(I311
I317
tp1659
a(I311
I318
tp1660
a(I311
I336
tp1661
a(I317
I318
tp1662
a(I317
I319
tp1663
a(I317
I335
tp1664
a(I317
I336
tp1665
a(I317
I337
tp1666
a(I317
I338
tp1667
a(I317
I339
tp1668
a(I318
I319
tp1669
a(I318
I320
tp1670
a(I318
I334
tp1671
a(I318
I335
tp1672
a(I318
I336
tp1673
a(I319
I320
tp1674
a(I319
I321
tp1675
a(I319
I333
tp1676
a(I319
I334
tp1677
a(I319
I335
tp1678
a(I319
I337
tp1679
a(I320
I321
tp1680
a(I320
I322
tp1681
a(I320
I332
tp1682
a(I320
I333
tp1683
a(I320
I334
tp1684
a(I321
I322
tp1685
a(I321
I323
tp1686
a(I321
I331
tp1687
a(I321
I332
tp1688
a(I321
I333
tp1689
a(I321
I335
tp1690
a(I322
I323
tp1691
a(I322
I331
tp1692
a(I323
I331
tp1693
a(I323
I333
tp1694
a(I331
I332
tp1695
a(I331
I333
tp1696
a(I332
I333
tp1697
a(I332
I334
tp1698
a(I333
I334
tp1699
a(I333
I335
tp1700
a(I334
I335
tp1701
a(I334
I336
tp1702
a(I335
I336
tp1703
a(I335
I337
tp1704
a(I336
I337
tp1705
a(I337
I338
tp1706
a(I337
I339
tp1707
a(I338
I339
tp1708
a(I339
I340
tp1709
atp1710
.